target datalayout = "e-m:e-p270:32:32-p271:32:32-p272:64:64-i64:64-i128:128-f80:128-n8:16:32:64-S128"
target triple = "x86_64-unknown-linux-gnu"

@.str.14 = private unnamed_addr constant [35 x i8] c"%s: Couldn't set %s/%s = %#08x: %s\00", align 1
@__func__.qemu_fdt_setprop_cell = private unnamed_addr constant [22 x i8] c"qemu_fdt_setprop_cell\00", align 1
@.str.39 = private unnamed_addr constant [29 x i8] c"%s Couldn't find node %s: %s\00", align 1
@__func__.findnode_nofail = private unnamed_addr constant [16 x i8] c"findnode_nofail\00", align 1

; Function Attrs: nounwind sspstrong uwtable
define internal i32 @cpu_to_fdt32(i32 noundef %x) #0 {
entry:
  %x.addr = alloca i32, align 4
  store i32 %x, ptr %x.addr, align 4
  %arrayidx = getelementptr i8, ptr %x.addr, i64 0
  %0 = load i8, ptr %arrayidx, align 4
  %conv = zext i8 %0 to i64
  %shl = shl i64 %conv, 24
  %arrayidx1 = getelementptr i8, ptr %x.addr, i64 1
  %1 = load i8, ptr %arrayidx1, align 1
  %conv2 = zext i8 %1 to i64
  %shl3 = shl i64 %conv2, 16
  %or = or i64 %shl, %shl3
  %arrayidx4 = getelementptr i8, ptr %x.addr, i64 2
  %2 = load i8, ptr %arrayidx4, align 2
  %conv5 = zext i8 %2 to i64
  %shl6 = shl i64 %conv5, 8
  %or7 = or i64 %or, %shl6
  %arrayidx8 = getelementptr i8, ptr %x.addr, i64 3
  %3 = load i8, ptr %arrayidx8, align 1
  %conv9 = zext i8 %3 to i64
  %or10 = or i64 %or7, %conv9
  %conv11 = trunc i64 %or10 to i32
  ret i32 %conv11
}

; Function Attrs: nounwind sspstrong uwtable
define internal i32 @fdt_setprop_u32(ptr noundef %fdt, i32 noundef %nodeoffset, ptr noundef %name, i32 noundef %val) #0 {
entry:
  %fdt.addr = alloca ptr, align 8
  %nodeoffset.addr = alloca i32, align 4
  %name.addr = alloca ptr, align 8
  %val.addr = alloca i32, align 4
  %tmp = alloca i32, align 4
  store ptr %fdt, ptr %fdt.addr, align 8
  store i32 %nodeoffset, ptr %nodeoffset.addr, align 4
  store ptr %name, ptr %name.addr, align 8
  store i32 %val, ptr %val.addr, align 4
  %0 = load i32, ptr %val.addr, align 4
  %call = call i32 @cpu_to_fdt32(i32 noundef %0)
  store i32 %call, ptr %tmp, align 4
  %1 = load ptr, ptr %fdt.addr, align 8
  %2 = load i32, ptr %nodeoffset.addr, align 4
  %3 = load ptr, ptr %name.addr, align 8
  %call1 = call i32 @fdt_setprop(ptr noundef %1, i32 noundef %2, ptr noundef %3, ptr noundef %tmp, i32 noundef 4)
  ret i32 %call1
}

; Function Attrs: nounwind sspstrong uwtable
define internal i32 @fdt_setprop_cell(ptr noundef %fdt, i32 noundef %nodeoffset, ptr noundef %name, i32 noundef %val) #0 {
entry:
  %fdt.addr = alloca ptr, align 8
  %nodeoffset.addr = alloca i32, align 4
  %name.addr = alloca ptr, align 8
  %val.addr = alloca i32, align 4
  store ptr %fdt, ptr %fdt.addr, align 8
  store i32 %nodeoffset, ptr %nodeoffset.addr, align 4
  store ptr %name, ptr %name.addr, align 8
  store i32 %val, ptr %val.addr, align 4
  %0 = load ptr, ptr %fdt.addr, align 8
  %1 = load i32, ptr %nodeoffset.addr, align 4
  %2 = load ptr, ptr %name.addr, align 8
  %3 = load i32, ptr %val.addr, align 4
  %call = call i32 @fdt_setprop_u32(ptr noundef %0, i32 noundef %1, ptr noundef %2, i32 noundef %3)
  ret i32 %call
}

; Function Attrs: nounwind sspstrong uwtable
define internal i32 @findnode_nofail(ptr noundef %fdt, ptr noundef %node_path) #0 {
entry:
  %fdt.addr = alloca ptr, align 8
  %node_path.addr = alloca ptr, align 8
  %offset = alloca i32, align 4
  store ptr %fdt, ptr %fdt.addr, align 8
  store ptr %node_path, ptr %node_path.addr, align 8
  %0 = load ptr, ptr %fdt.addr, align 8
  %1 = load ptr, ptr %node_path.addr, align 8
  %call = call i32 @fdt_path_offset(ptr noundef %0, ptr noundef %1)
  store i32 %call, ptr %offset, align 4
  %2 = load i32, ptr %offset, align 4
  %cmp = icmp slt i32 %2, 0
  br i1 %cmp, label %if.then, label %if.end

if.then:                                          ; preds = %entry
  %3 = load ptr, ptr %node_path.addr, align 8
  %4 = load i32, ptr %offset, align 4
  %call1 = call ptr @fdt_strerror(i32 noundef %4)
  call void (ptr, ...) @error_report(ptr noundef @.str.39, ptr noundef @__func__.findnode_nofail, ptr noundef %3, ptr noundef %call1)
  call void @exit(i32 noundef 1) #10
  unreachable

if.end:                                           ; preds = %entry
  %5 = load i32, ptr %offset, align 4
  ret i32 %5
}

; Function Attrs: nounwind sspstrong uwtable
define dso_local i32 @qemu_fdt_setprop_cell(ptr noundef %fdt, ptr noundef %node_path, ptr noundef %property, i32 noundef %val) #0 {
entry:
  %fdt.addr = alloca ptr, align 8
  %node_path.addr = alloca ptr, align 8
  %property.addr = alloca ptr, align 8
  %val.addr = alloca i32, align 4
  %r = alloca i32, align 4
  store ptr %fdt, ptr %fdt.addr, align 8
  store ptr %node_path, ptr %node_path.addr, align 8
  store ptr %property, ptr %property.addr, align 8
  store i32 %val, ptr %val.addr, align 4
  %0 = load ptr, ptr %fdt.addr, align 8
  %1 = load ptr, ptr %fdt.addr, align 8
  %2 = load ptr, ptr %node_path.addr, align 8
  %call = call i32 @findnode_nofail(ptr noundef %1, ptr noundef %2)
  %3 = load ptr, ptr %property.addr, align 8
  %4 = load i32, ptr %val.addr, align 4
  %call1 = call i32 @fdt_setprop_cell(ptr noundef %0, i32 noundef %call, ptr noundef %3, i32 noundef %4)
  store i32 %call1, ptr %r, align 4
  %5 = load i32, ptr %r, align 4
  %cmp = icmp slt i32 %5, 0
  br i1 %cmp, label %if.then, label %if.end

if.then:                                          ; preds = %entry
  %6 = load ptr, ptr %node_path.addr, align 8
  %7 = load ptr, ptr %property.addr, align 8
  %8 = load i32, ptr %val.addr, align 4
  %9 = load i32, ptr %r, align 4
  %call2 = call ptr @fdt_strerror(i32 noundef %9)
  call void (ptr, ...) @error_report(ptr noundef @.str.14, ptr noundef @__func__.qemu_fdt_setprop_cell, ptr noundef %6, ptr noundef %7, i32 noundef %8, ptr noundef %call2)
  call void @exit(i32 noundef 1) #10
  unreachable

if.end:                                           ; preds = %entry
  %10 = load i32, ptr %r, align 4
  ret i32 %10
}