; Function Attrs: nounwind sspstrong uwtable
define dso_local range(i32 0, -2147483648) i32 @qemu_fdt_setprop_cell(ptr noundef %fdt, ptr noundef %node_path, ptr noundef %property, i32 noundef %val) local_unnamed_addr #0 {
entry:
  %tmp.i.i = alloca i32, align 4
  %call.i = tail call i32 @fdt_path_offset(ptr noundef %fdt, ptr noundef %node_path) #12
  %cmp.i = icmp slt i32 %call.i, 0
  br i1 %cmp.i, label %if.then.i, label %findnode_nofail.exit

if.then.i:                                        ; preds = %entry
  %call1.i = tail call ptr @fdt_strerror(i32 noundef %call.i) #12
  tail call void (ptr, ...) @error_report(ptr noundef nonnull @.str.39, ptr noundef nonnull @__func__.findnode_nofail, ptr noundef %node_path, ptr noundef %call1.i) #12
  tail call void @exit(i32 noundef 1) #13
  unreachable

findnode_nofail.exit:                             ; preds = %entry
  call void @llvm.lifetime.start.p0(i64 4, ptr nonnull %tmp.i.i)
  %rev.i.i.i = tail call noundef i32 @llvm.bswap.i32(i32 %val)
  store i32 %rev.i.i.i, ptr %tmp.i.i, align 4
  %call1.i.i = call i32 @fdt_setprop(ptr noundef %fdt, i32 noundef range(i32 0, -2147483648) %call.i, ptr noundef %property, ptr noundef nonnull %tmp.i.i, i32 noundef 4) #12
  call void @llvm.lifetime.end.p0(i64 4, ptr nonnull %tmp.i.i)
  %cmp = icmp slt i32 %call1.i.i, 0
  br i1 %cmp, label %if.then, label %if.end

if.then:                                          ; preds = %findnode_nofail.exit
  %call2 = call ptr @fdt_strerror(i32 noundef %call1.i.i) #12
  call void (ptr, ...) @error_report(ptr noundef nonnull @.str.14, ptr noundef nonnull @__func__.qemu_fdt_setprop_cell, ptr noundef %node_path, ptr noundef %property, i32 noundef %val, ptr noundef %call2) #12
  call void @exit(i32 noundef 1) #13
  unreachable

if.end:                                           ; preds = %findnode_nofail.exit
  ret i32 %call1.i.i
}